
mq_2_ly.ko:     file format elf32-littlearm


Disassembly of section .text:

00000000 <cleanup_module>:
   0:	e1a0c00d 	mov	ip, sp
   4:	e92dd830 	push	{r4, r5, fp, ip, lr, pc}
   8:	e24cb004 	sub	fp, ip, #4
   c:	e59f4048 	ldr	r4, [pc, #72]	; 5c <cleanup_module+0x5c>
  10:	e8940003 	ldm	r4, {r0, r1}
  14:	e1a01a01 	lsl	r1, r1, #20
  18:	ebfffffe 	bl	0 <class_device_destroy>
  1c:	e8940003 	ldm	r4, {r0, r1}
  20:	e1a01a01 	lsl	r1, r1, #20
  24:	e3811001 	orr	r1, r1, #1
  28:	e1a05004 	mov	r5, r4
  2c:	ebfffffe 	bl	0 <class_device_destroy>
  30:	e4950008 	ldr	r0, [r5], #8
  34:	ebfffffe 	bl	0 <class_destroy>
  38:	e1a00005 	mov	r0, r5
  3c:	ebfffffe 	bl	0 <cdev_del>
  40:	e5940004 	ldr	r0, [r4, #4]
  44:	e3a01003 	mov	r1, #3
  48:	e1a00a00 	lsl	r0, r0, #20
  4c:	ebfffffe 	bl	0 <unregister_chrdev_region>
  50:	e594005c 	ldr	r0, [r4, #92]	; 0x5c
  54:	ebfffffe 	bl	0 <__iounmap>
  58:	e89da830 	ldm	sp, {r4, r5, fp, sp, pc}
  5c:	00000000 	andeq	r0, r0, r0

00000060 <mq_2_ly_release>:
  60:	e1a0c00d 	mov	ip, sp
  64:	e92dd800 	push	{fp, ip, lr, pc}
  68:	e24cb004 	sub	fp, ip, #4
  6c:	e59f1018 	ldr	r1, [pc, #24]	; 8c <mq_2_ly_release+0x2c>
  70:	e59f0018 	ldr	r0, [pc, #24]	; 90 <mq_2_ly_release+0x30>
  74:	ebfffffe 	bl	0 <printk>
  78:	e3a00050 	mov	r0, #80	; 0x50
  7c:	e59f1010 	ldr	r1, [pc, #16]	; 94 <mq_2_ly_release+0x34>
  80:	ebfffffe 	bl	0 <free_irq>
  84:	e3a00000 	mov	r0, #0
  88:	e89da800 	ldm	sp, {fp, sp, pc}
	...
  94:	00000060 	andeq	r0, r0, r0, rrx

00000098 <mq_2_ly_open>:
  98:	e1a0c00d 	mov	ip, sp
  9c:	e92dd810 	push	{r4, fp, ip, lr, pc}
  a0:	e24cb004 	sub	fp, ip, #4
  a4:	e24dd00c 	sub	sp, sp, #12
  a8:	e59f404c 	ldr	r4, [pc, #76]	; fc <mq_2_ly_open+0x64>
  ac:	e59f104c 	ldr	r1, [pc, #76]	; 100 <mq_2_ly_open+0x68>
  b0:	e59f004c 	ldr	r0, [pc, #76]	; 104 <mq_2_ly_open+0x6c>
  b4:	ebfffffe 	bl	0 <printk>
  b8:	e1a00004 	mov	r0, r4
  bc:	ebfffffe 	bl	0 <init_waitqueue_head>
  c0:	e3a02080 	mov	r2, #128	; 0x80
  c4:	e3a00050 	mov	r0, #80	; 0x50
  c8:	e59f1038 	ldr	r1, [pc, #56]	; 108 <mq_2_ly_open+0x70>
  cc:	e59f3038 	ldr	r3, [pc, #56]	; 10c <mq_2_ly_open+0x74>
  d0:	e58d4000 	str	r4, [sp]
  d4:	ebfffffe 	bl	0 <request_irq>
  d8:	e2502000 	subs	r2, r0, #0
  dc:	01a00002 	moveq	r0, r2
  e0:	0a000003 	beq	f4 <mq_2_ly_open+0x5c>
  e4:	e59f0024 	ldr	r0, [pc, #36]	; 110 <mq_2_ly_open+0x78>
  e8:	e3a01050 	mov	r1, #80	; 0x50
  ec:	ebfffffe 	bl	0 <printk>
  f0:	e3e00015 	mvn	r0, #21
  f4:	e24bd010 	sub	sp, fp, #16
  f8:	e89da810 	ldm	sp, {r4, fp, sp, pc}
  fc:	00000060 	andeq	r0, r0, r0, rrx
 100:	00000010 	andeq	r0, r0, r0, lsl r0
	...
 10c:	00000020 	andeq	r0, r0, r0, lsr #32
 110:	00000029 	andeq	r0, r0, r9, lsr #32

00000114 <adc_irq>:
 114:	e1a0c00d 	mov	ip, sp
 118:	e92dd830 	push	{r4, r5, fp, ip, lr, pc}
 11c:	e24cb004 	sub	fp, ip, #4
 120:	e59fc03c 	ldr	ip, [pc, #60]	; 164 <adc_irq+0x50>
 124:	e59c3070 	ldr	r3, [ip, #112]	; 0x70
 128:	e3530000 	cmp	r3, #0
 12c:	1a00000a 	bne	15c <adc_irq+0x48>
 130:	e59c205c 	ldr	r2, [ip, #92]	; 0x5c
 134:	e3a04001 	mov	r4, #1
 138:	e592e00c 	ldr	lr, [r2, #12]
 13c:	e1a01004 	mov	r1, r4
 140:	e1a0eb0e 	lsl	lr, lr, #22
 144:	e1a0eb2e 	lsr	lr, lr, #22
 148:	e28c0060 	add	r0, ip, #96	; 0x60
 14c:	e1a02004 	mov	r2, r4
 150:	e58ce074 	str	lr, [ip, #116]	; 0x74
 154:	e58c4070 	str	r4, [ip, #112]	; 0x70
 158:	ebfffffe 	bl	0 <__wake_up>
 15c:	e3a00001 	mov	r0, #1
 160:	e89da830 	ldm	sp, {r4, r5, fp, sp, pc}
 164:	00000000 	andeq	r0, r0, r0

00000168 <mq_2_ly_read>:
 168:	e1a0c00d 	mov	ip, sp
 16c:	e92dd9f0 	push	{r4, r5, r6, r7, r8, fp, ip, lr, pc}
 170:	e24cb004 	sub	fp, ip, #4
 174:	e24dd01c 	sub	sp, sp, #28
 178:	e59f410c 	ldr	r4, [pc, #268]	; 28c <mq_2_ly_read+0x124>
 17c:	e1a06001 	mov	r6, r1
 180:	e5943070 	ldr	r3, [r4, #112]	; 0x70
 184:	e3530000 	cmp	r3, #0
 188:	03e0000a 	mvneq	r0, #10
 18c:	0a00003c 	beq	284 <mq_2_ly_read+0x11c>
 190:	e5942068 	ldr	r2, [r4, #104]	; 0x68
 194:	e5d4306c 	ldrb	r3, [r4, #108]	; 0x6c
 198:	e2022007 	and	r2, r2, #7
 19c:	e1a02182 	lsl	r2, r2, #3
 1a0:	e1822303 	orr	r2, r2, r3, lsl #6
 1a4:	e594305c 	ldr	r3, [r4, #92]	; 0x5c
 1a8:	e3822901 	orr	r2, r2, #16384	; 0x4000
 1ac:	e5832000 	str	r2, [r3]
 1b0:	e5932000 	ldr	r2, [r3]
 1b4:	e3822001 	orr	r2, r2, #1
 1b8:	e5832000 	str	r2, [r3]
 1bc:	e5941070 	ldr	r1, [r4, #112]	; 0x70
 1c0:	e3510000 	cmp	r1, #0
 1c4:	1a00001e 	bne	244 <mq_2_ly_read+0xdc>
 1c8:	e1a0200d 	mov	r2, sp
 1cc:	e24b7038 	sub	r7, fp, #56	; 0x38
 1d0:	e3c25d7f 	bic	r5, r2, #8128	; 0x1fc0
 1d4:	e3c5503f 	bic	r5, r5, #63	; 0x3f
 1d8:	e3a02014 	mov	r2, #20
 1dc:	e1a00007 	mov	r0, r7
 1e0:	e595800c 	ldr	r8, [r5, #12]
 1e4:	ebfffffe 	bl	0 <memset>
 1e8:	e59f20a0 	ldr	r2, [pc, #160]	; 290 <mq_2_ly_read+0x128>
 1ec:	e287300c 	add	r3, r7, #12
 1f0:	e50b8034 	str	r8, [fp, #-52]	; 0x34
 1f4:	e50b2030 	str	r2, [fp, #-48]	; 0x30
 1f8:	e50b3028 	str	r3, [fp, #-40]	; 0x28
 1fc:	e50b302c 	str	r3, [fp, #-44]	; 0x2c
 200:	e59f008c 	ldr	r0, [pc, #140]	; 294 <mq_2_ly_read+0x12c>
 204:	e1a01007 	mov	r1, r7
 208:	e3a02001 	mov	r2, #1
 20c:	ebfffffe 	bl	0 <prepare_to_wait>
 210:	e5943070 	ldr	r3, [r4, #112]	; 0x70
 214:	e3530000 	cmp	r3, #0
 218:	1a000006 	bne	238 <mq_2_ly_read+0xd0>
 21c:	e595300c 	ldr	r3, [r5, #12]
 220:	e5933004 	ldr	r3, [r3, #4]
 224:	e5933000 	ldr	r3, [r3]
 228:	e3130002 	tst	r3, #2
 22c:	1a000001 	bne	238 <mq_2_ly_read+0xd0>
 230:	ebfffffe 	bl	0 <schedule>
 234:	eafffff1 	b	200 <mq_2_ly_read+0x98>
 238:	e59f0054 	ldr	r0, [pc, #84]	; 294 <mq_2_ly_read+0x12c>
 23c:	e24b1038 	sub	r1, fp, #56	; 0x38
 240:	ebfffffe 	bl	0 <finish_wait>
 244:	e1a0200d 	mov	r2, sp
 248:	e3c23d7f 	bic	r3, r2, #8128	; 0x1fc0
 24c:	e3c3303f 	bic	r3, r3, #63	; 0x3f
 250:	e59f1034 	ldr	r1, [pc, #52]	; 28c <mq_2_ly_read+0x124>
 254:	e5933008 	ldr	r3, [r3, #8]
 258:	e2962004 	adds	r2, r6, #4
 25c:	30d22003 	sbcscc	r2, r2, r3
 260:	33a03000 	movcc	r3, #0
 264:	e3530000 	cmp	r3, #0
 268:	e3a03000 	mov	r3, #0
 26c:	e5813070 	str	r3, [r1, #112]	; 0x70
 270:	01a00006 	moveq	r0, r6
 274:	02811074 	addeq	r1, r1, #116	; 0x74
 278:	03a02004 	moveq	r2, #4
 27c:	0bfffffe 	bleq	0 <__copy_to_user>
 280:	e3a00004 	mov	r0, #4
 284:	e24bd020 	sub	sp, fp, #32
 288:	e89da9f0 	ldm	sp, {r4, r5, r6, r7, r8, fp, sp, pc}
	...
 294:	00000060 	andeq	r0, r0, r0, rrx

00000298 <init_module>:
 298:	e1a0c00d 	mov	ip, sp
 29c:	e92dd830 	push	{r4, r5, fp, ip, lr, pc}
 2a0:	e24cb004 	sub	fp, ip, #4
 2a4:	e24dd010 	sub	sp, sp, #16
 2a8:	e59f311c 	ldr	r3, [pc, #284]	; 3cc <init_module+0x134>
 2ac:	e3a02003 	mov	r2, #3
 2b0:	e5935020 	ldr	r5, [r3, #32]
 2b4:	e3a01000 	mov	r1, #0
 2b8:	e1a03005 	mov	r3, r5
 2bc:	e24b0018 	sub	r0, fp, #24
 2c0:	ebfffffe 	bl	0 <alloc_chrdev_region>
 2c4:	e59f4104 	ldr	r4, [pc, #260]	; 3d0 <init_module+0x138>
 2c8:	e51b3018 	ldr	r3, [fp, #-24]
 2cc:	e2840008 	add	r0, r4, #8
 2d0:	e1a03a23 	lsr	r3, r3, #20
 2d4:	e59f10f8 	ldr	r1, [pc, #248]	; 3d4 <init_module+0x13c>
 2d8:	e5843004 	str	r3, [r4, #4]
 2dc:	ebfffffe 	bl	0 <cdev_init>
 2e0:	e3a02003 	mov	r2, #3
 2e4:	e51b1018 	ldr	r1, [fp, #-24]
 2e8:	e2840008 	add	r0, r4, #8
 2ec:	ebfffffe 	bl	0 <cdev_add>
 2f0:	e1a01005 	mov	r1, r5
 2f4:	e59f00dc 	ldr	r0, [pc, #220]	; 3d8 <init_module+0x140>
 2f8:	ebfffffe 	bl	0 <class_create>
 2fc:	e5942004 	ldr	r2, [r4, #4]
 300:	e3a01000 	mov	r1, #0
 304:	e59fc0d0 	ldr	ip, [pc, #208]	; 3dc <init_module+0x144>
 308:	e1a05001 	mov	r5, r1
 30c:	e1a03001 	mov	r3, r1
 310:	e1a02a02 	lsl	r2, r2, #20
 314:	e58dc000 	str	ip, [sp]
 318:	e5840000 	str	r0, [r4]
 31c:	ebfffffe 	bl	0 <class_device_create>
 320:	e3a030ff 	mov	r3, #255	; 0xff
 324:	e1a00005 	mov	r0, r5
 328:	e59f10b0 	ldr	r1, [pc, #176]	; 3e0 <init_module+0x148>
 32c:	e584306c 	str	r3, [r4, #108]	; 0x6c
 330:	e5845068 	str	r5, [r4, #104]	; 0x68
 334:	ebfffffe 	bl	0 <clk_get>
 338:	e1500005 	cmp	r0, r5
 33c:	e5840078 	str	r0, [r4, #120]	; 0x78
 340:	1a000002 	bne	350 <init_module+0xb8>
 344:	e59f0098 	ldr	r0, [pc, #152]	; 3e4 <init_module+0x14c>
 348:	ebfffffe 	bl	0 <printk>
 34c:	ea00000d 	b	388 <init_module+0xf0>
 350:	ebfffffe 	bl	0 <clk_enable>
 354:	e1a02005 	mov	r2, r5
 358:	e3a00316 	mov	r0, #1476395008	; 0x58000000
 35c:	e3a01601 	mov	r1, #1048576	; 0x100000
 360:	ebfffffe 	bl	0 <__arm_ioremap>
 364:	e3500000 	cmp	r0, #0
 368:	e584005c 	str	r0, [r4, #92]	; 0x5c
 36c:	059f0074 	ldreq	r0, [pc, #116]	; 3e8 <init_module+0x150>
 370:	0bfffffe 	bleq	0 <printk>
 374:	e59f4054 	ldr	r4, [pc, #84]	; 3d0 <init_module+0x138>
 378:	e5940078 	ldr	r0, [r4, #120]	; 0x78
 37c:	ebfffffe 	bl	0 <clk_disable>
 380:	e5940078 	ldr	r0, [r4, #120]	; 0x78
 384:	ebfffffe 	bl	0 <clk_put>
 388:	e59f4040 	ldr	r4, [pc, #64]	; 3d0 <init_module+0x138>
 38c:	e5943000 	ldr	r3, [r4]
 390:	e3730a01 	cmn	r3, #4096	; 0x1000
 394:	9a000007 	bls	3b8 <init_module+0x120>
 398:	e59f004c 	ldr	r0, [pc, #76]	; 3ec <init_module+0x154>
 39c:	ebfffffe 	bl	0 <printk>
 3a0:	e5940000 	ldr	r0, [r4]
 3a4:	ebfffffe 	bl	0 <class_destroy>
 3a8:	e594005c 	ldr	r0, [r4, #92]	; 0x5c
 3ac:	ebfffffe 	bl	0 <__iounmap>
 3b0:	e3e00000 	mvn	r0, #0
 3b4:	ea000002 	b	3c4 <init_module+0x12c>
 3b8:	e59f0030 	ldr	r0, [pc, #48]	; 3f0 <init_module+0x158>
 3bc:	ebfffffe 	bl	0 <printk>
 3c0:	e3a00000 	mov	r0, #0
 3c4:	e24bd014 	sub	sp, fp, #20
 3c8:	e89da830 	ldm	sp, {r4, r5, fp, sp, pc}
	...
 3dc:	0000003f 	andeq	r0, r0, pc, lsr r0
 3e0:	00000020 	andeq	r0, r0, r0, lsr #32
 3e4:	00000049 	andeq	r0, r0, r9, asr #32
 3e8:	0000006d 	andeq	r0, r0, sp, rrx
 3ec:	00000090 	muleq	r0, r0, r0
 3f0:	000000a6 	andeq	r0, r0, r6, lsr #1

Disassembly of section .modinfo:

00000000 <__mod_license294>:
   0:	6563696c 	strbvs	r6, [r3, #-2412]!	; 0x96c
   4:	3d65736e 	stclcc	3, cr7, [r5, #-440]!	; 0xfffffe48
   8:	004c5047 	subeq	r5, ip, r7, asr #32

0000000c <__module_depends>:
   c:	65706564 	ldrbvs	r6, [r0, #-1380]!	; 0x564
  10:	3d73646e 	cfldrdcc	mvd6, [r3, #-440]!	; 0xfffffe48
  14:	6c697562 	cfstr64vs	mvdx7, [r9], #-392	; 0xfffffe78
  18:	6e692d74 	mcrvs	13, 3, r2, cr9, cr4, {3}
  1c:	6975622c 	ldmdbvs	r5!, {r2, r3, r5, r9, sp, lr}^
  20:	692d746c 	pushvs	{r2, r3, r5, r6, sl, ip, sp, lr}
  24:	75622c6e 	strbvc	r2, [r2, #-3182]!	; 0xc6e
  28:	2d746c69 	ldclcs	12, cr6, [r4, #-420]!	; 0xfffffe5c
  2c:	622c6e69 	eorvs	r6, ip, #1680	; 0x690
  30:	746c6975 	strbtvc	r6, [ip], #-2421	; 0x975
  34:	2c6e692d 	stclcs	9, cr6, [lr], #-180	; 0xffffff4c
  38:	6c697562 	cfstr64vs	mvdx7, [r9], #-392	; 0xfffffe78
  3c:	6e692d74 	mcrvs	13, 3, r2, cr9, cr4, {3}
  40:	6975622c 	ldmdbvs	r5!, {r2, r3, r5, r9, sp, lr}^
  44:	692d746c 	pushvs	{r2, r3, r5, r6, sl, ip, sp, lr}
  48:	0000006e 	andeq	r0, r0, lr, rrx

0000004c <__mod_vermagic5>:
  4c:	6d726576 	cfldr64vs	mvdx6, [r2, #-472]!	; 0xfffffe28
  50:	63696761 	cmnvs	r9, #25427968	; 0x1840000
  54:	362e323d 	undefined instruction 0x362e323d
  58:	2e32332e 	cdpcs	3, 3, cr3, cr2, cr14, {1}
  5c:	6f6d2036 	svcvs	0x006d2036
  60:	6e755f64 	cdpvs	15, 7, cr5, cr5, cr4, {3}
  64:	64616f6c 	strbtvs	r6, [r1], #-3948	; 0xf6c
  68:	4d524120 	ldfmie	f4, [r2, #-128]	; 0xffffff80
  6c:	00203476 	eoreq	r3, r0, r6, ror r4
